
led.elf:     file format elf32-littlearm


Disassembly of section .text:

00000000 <_start>:
   0:	e3a00453 	mov	r0, #1392508928	; 0x53000000
   4:	e3a01000 	mov	r1, #0
   8:	e5801000 	str	r1, [r0]
   c:	e3a01000 	mov	r1, #0
  10:	e5910000 	ldr	r0, [r1]
  14:	e5911000 	ldr	r1, [r1]
  18:	e5912000 	ldr	r2, [r1]
  1c:	e1510002 	cmp	r1, r2
  20:	e59fd00c 	ldr	sp, [pc, #12]	; 34 <halt+0x4>
  24:	03a0da01 	moveq	sp, #4096	; 0x1000
  28:	e5810000 	str	r0, [r1]
  2c:	eb000011 	bl	78 <main>

00000030 <halt>:
  30:	eafffffe 	b	30 <halt>
  34:	40001000 	andmi	r1, r0, r0

00000038 <delay>:
  38:	e52db004 	push	{fp}		; (str fp, [sp, #-4]!)
  3c:	e28db000 	add	fp, sp, #0
  40:	e24dd00c 	sub	sp, sp, #12
  44:	e50b0008 	str	r0, [fp, #-8]
  48:	e51b3008 	ldr	r3, [fp, #-8]
  4c:	e3530000 	cmp	r3, #0
  50:	03a02000 	moveq	r2, #0
  54:	13a02001 	movne	r2, #1
  58:	e20220ff 	and	r2, r2, #255	; 0xff
  5c:	e2433001 	sub	r3, r3, #1
  60:	e50b3008 	str	r3, [fp, #-8]
  64:	e3520000 	cmp	r2, #0
  68:	1afffff6 	bne	48 <delay+0x10>
  6c:	e28bd000 	add	sp, fp, #0
  70:	e8bd0800 	pop	{fp}
  74:	e12fff1e 	bx	lr

00000078 <main>:
  78:	e92d4800 	push	{fp, lr}
  7c:	e28db004 	add	fp, sp, #4
  80:	e24dd010 	sub	sp, sp, #16
  84:	e59f30b4 	ldr	r3, [pc, #180]	; 140 <main+0xc8>
  88:	e50b3014 	str	r3, [fp, #-20]
  8c:	e59f30b0 	ldr	r3, [pc, #176]	; 144 <main+0xcc>
  90:	e50b3010 	str	r3, [fp, #-16]
  94:	e3a03000 	mov	r3, #0
  98:	e50b300c 	str	r3, [fp, #-12]
  9c:	e51b3014 	ldr	r3, [fp, #-20]
  a0:	e5933000 	ldr	r3, [r3]
  a4:	e3c32c3f 	bic	r2, r3, #16128	; 0x3f00
  a8:	e51b3014 	ldr	r3, [fp, #-20]
  ac:	e5832000 	str	r2, [r3]
  b0:	e51b3014 	ldr	r3, [fp, #-20]
  b4:	e5933000 	ldr	r3, [r3]
  b8:	e3832c15 	orr	r2, r3, #5376	; 0x1500
  bc:	e51b3014 	ldr	r3, [fp, #-20]
  c0:	e5832000 	str	r2, [r3]
  c4:	ea000000 	b	cc <main+0x54>
  c8:	e1a00000 	nop			; (mov r0, r0)
  cc:	e51b300c 	ldr	r3, [fp, #-12]
  d0:	e1e03003 	mvn	r3, r3
  d4:	e50b3008 	str	r3, [fp, #-8]
  d8:	e51b3008 	ldr	r3, [fp, #-8]
  dc:	e2033007 	and	r3, r3, #7
  e0:	e50b3008 	str	r3, [fp, #-8]
  e4:	e51b3010 	ldr	r3, [fp, #-16]
  e8:	e5933000 	ldr	r3, [r3]
  ec:	e3c32070 	bic	r2, r3, #112	; 0x70
  f0:	e51b3010 	ldr	r3, [fp, #-16]
  f4:	e5832000 	str	r2, [r3]
  f8:	e51b3010 	ldr	r3, [fp, #-16]
  fc:	e5932000 	ldr	r2, [r3]
 100:	e51b3008 	ldr	r3, [fp, #-8]
 104:	e1a03203 	lsl	r3, r3, #4
 108:	e1822003 	orr	r2, r2, r3
 10c:	e51b3010 	ldr	r3, [fp, #-16]
 110:	e5832000 	str	r2, [r3]
 114:	e59f002c 	ldr	r0, [pc, #44]	; 148 <main+0xd0>
 118:	ebffffc6 	bl	38 <delay>
 11c:	e51b300c 	ldr	r3, [fp, #-12]
 120:	e2833001 	add	r3, r3, #1
 124:	e50b300c 	str	r3, [fp, #-12]
 128:	e51b300c 	ldr	r3, [fp, #-12]
 12c:	e3530008 	cmp	r3, #8
 130:	1affffe4 	bne	c8 <main+0x50>
 134:	e3a03000 	mov	r3, #0
 138:	e50b300c 	str	r3, [fp, #-12]
 13c:	eaffffe2 	b	cc <main+0x54>
 140:	56000050 	undefined instruction 0x56000050
 144:	56000054 	undefined instruction 0x56000054
 148:	000186a0 	andeq	r8, r1, r0, lsr #13

Disassembly of section .ARM.attributes:

00000000 <.ARM.attributes>:
   0:	00002541 	andeq	r2, r0, r1, asr #10
   4:	61656100 	cmnvs	r5, r0, lsl #2
   8:	01006962 	tsteq	r0, r2, ror #18
   c:	0000001b 	andeq	r0, r0, fp, lsl r0
  10:	00543405 	subseq	r3, r4, r5, lsl #8
  14:	01080206 	tsteq	r8, r6, lsl #4
  18:	04120109 	ldreq	r0, [r2], #-265	; 0x109
  1c:	01150114 	tsteq	r5, r4, lsl r1
  20:	01180317 	tsteq	r8, r7, lsl r3
  24:	Address 0x00000024 is out of bounds.


Disassembly of section .comment:

00000000 <.comment>:
   0:	3a434347 	bcc	10d0d24 <__bss_end__+0x10c8bd8>
   4:	74632820 	strbtvc	r2, [r3], #-2080	; 0x820
   8:	312d676e 	teqcc	sp, lr, ror #14
   c:	312e362e 	teqcc	lr, lr, lsr #12
  10:	2e342029 	cdpcs	0, 3, cr2, cr4, cr9, {1}
  14:	00332e34 	eorseq	r2, r3, r4, lsr lr
