
led.elf:     file format elf32-littlearm


Disassembly of section .text:

00000000 <_start>:
   0:	e3a00453 	mov	r0, #1392508928	; 0x53000000
   4:	e3a01000 	mov	r1, #0
   8:	e5801000 	str	r1, [r0]
   c:	e3a01000 	mov	r1, #0
  10:	e5910000 	ldr	r0, [r1]
  14:	e5811000 	str	r1, [r1]
  18:	e5912000 	ldr	r2, [r1]
  1c:	e1510002 	cmp	r1, r2
  20:	e59fd00c 	ldr	sp, [pc, #12]	; 34 <halt+0x4>
  24:	03a0da01 	moveq	sp, #4096	; 0x1000
  28:	05810000 	streq	r0, [r1]
  2c:	eb000011 	bl	78 <main>

00000030 <halt>:
  30:	eafffffe 	b	30 <halt>
  34:	40001000 	andmi	r1, r0, r0

00000038 <delay>:
  38:	e52db004 	push	{fp}		; (str fp, [sp, #-4]!)
  3c:	e28db000 	add	fp, sp, #0
  40:	e24dd00c 	sub	sp, sp, #12
  44:	e50b0008 	str	r0, [fp, #-8]
  48:	e51b3008 	ldr	r3, [fp, #-8]
  4c:	e3530000 	cmp	r3, #0
  50:	03a02000 	moveq	r2, #0
  54:	13a02001 	movne	r2, #1
  58:	e20220ff 	and	r2, r2, #255	; 0xff
  5c:	e2433001 	sub	r3, r3, #1
  60:	e50b3008 	str	r3, [fp, #-8]
  64:	e3520000 	cmp	r2, #0
  68:	1afffff6 	bne	48 <delay+0x10>
  6c:	e28bd000 	add	sp, fp, #0
  70:	e8bd0800 	pop	{fp}
  74:	e12fff1e 	bx	lr

00000078 <main>:
  78:	e52db004 	push	{fp}		; (str fp, [sp, #-4]!)
  7c:	e28db000 	add	fp, sp, #0
  80:	e24dd00c 	sub	sp, sp, #12
  84:	e59f313c 	ldr	r3, [pc, #316]	; 1c8 <main+0x150>
  88:	e59f2138 	ldr	r2, [pc, #312]	; 1c8 <main+0x150>
  8c:	e5922000 	ldr	r2, [r2]
  90:	e3c22c3f 	bic	r2, r2, #16128	; 0x3f00
  94:	e5832000 	str	r2, [r3]
  98:	e59f3128 	ldr	r3, [pc, #296]	; 1c8 <main+0x150>
  9c:	e59f2124 	ldr	r2, [pc, #292]	; 1c8 <main+0x150>
  a0:	e5922000 	ldr	r2, [r2]
  a4:	e3822c15 	orr	r2, r2, #5376	; 0x1500
  a8:	e5832000 	str	r2, [r3]
  ac:	e59f3114 	ldr	r3, [pc, #276]	; 1c8 <main+0x150>
  b0:	e59f2110 	ldr	r2, [pc, #272]	; 1c8 <main+0x150>
  b4:	e5922000 	ldr	r2, [r2]
  b8:	e3c22033 	bic	r2, r2, #51	; 0x33
  bc:	e5832000 	str	r2, [r3]
  c0:	e59f3100 	ldr	r3, [pc, #256]	; 1c8 <main+0x150>
  c4:	e59f20fc 	ldr	r2, [pc, #252]	; 1c8 <main+0x150>
  c8:	e5922000 	ldr	r2, [r2]
  cc:	e5832000 	str	r2, [r3]
  d0:	e59f30f4 	ldr	r3, [pc, #244]	; 1cc <main+0x154>
  d4:	e59f20f0 	ldr	r2, [pc, #240]	; 1cc <main+0x154>
  d8:	e5922000 	ldr	r2, [r2]
  dc:	e3c220c0 	bic	r2, r2, #192	; 0xc0
  e0:	e5832000 	str	r2, [r3]
  e4:	e59f30e0 	ldr	r3, [pc, #224]	; 1cc <main+0x154>
  e8:	e59f20dc 	ldr	r2, [pc, #220]	; 1cc <main+0x154>
  ec:	e5922000 	ldr	r2, [r2]
  f0:	e5832000 	str	r2, [r3]
  f4:	e59f30d4 	ldr	r3, [pc, #212]	; 1d0 <main+0x158>
  f8:	e5933000 	ldr	r3, [r3]
  fc:	e50b300c 	str	r3, [fp, #-12]
 100:	e59f30cc 	ldr	r3, [pc, #204]	; 1d4 <main+0x15c>
 104:	e5933000 	ldr	r3, [r3]
 108:	e50b3008 	str	r3, [fp, #-8]
 10c:	e51b300c 	ldr	r3, [fp, #-12]
 110:	e2033001 	and	r3, r3, #1
 114:	e20330ff 	and	r3, r3, #255	; 0xff
 118:	e3530000 	cmp	r3, #0
 11c:	0a000005 	beq	138 <main+0xc0>
 120:	e59f30a8 	ldr	r3, [pc, #168]	; 1d0 <main+0x158>
 124:	e59f20a4 	ldr	r2, [pc, #164]	; 1d0 <main+0x158>
 128:	e5922000 	ldr	r2, [r2]
 12c:	e3822040 	orr	r2, r2, #64	; 0x40
 130:	e5832000 	str	r2, [r3]
 134:	ea000004 	b	14c <main+0xd4>
 138:	e59f3090 	ldr	r3, [pc, #144]	; 1d0 <main+0x158>
 13c:	e59f208c 	ldr	r2, [pc, #140]	; 1d0 <main+0x158>
 140:	e5922000 	ldr	r2, [r2]
 144:	e3c22040 	bic	r2, r2, #64	; 0x40
 148:	e5832000 	str	r2, [r3]
 14c:	e51b300c 	ldr	r3, [fp, #-12]
 150:	e2033004 	and	r3, r3, #4
 154:	e3530000 	cmp	r3, #0
 158:	0a000005 	beq	174 <main+0xfc>
 15c:	e59f306c 	ldr	r3, [pc, #108]	; 1d0 <main+0x158>
 160:	e59f2068 	ldr	r2, [pc, #104]	; 1d0 <main+0x158>
 164:	e5922000 	ldr	r2, [r2]
 168:	e3822020 	orr	r2, r2, #32
 16c:	e5832000 	str	r2, [r3]
 170:	ea000004 	b	188 <main+0x110>
 174:	e59f3054 	ldr	r3, [pc, #84]	; 1d0 <main+0x158>
 178:	e59f2050 	ldr	r2, [pc, #80]	; 1d0 <main+0x158>
 17c:	e5922000 	ldr	r2, [r2]
 180:	e3c22020 	bic	r2, r2, #32
 184:	e5832000 	str	r2, [r3]
 188:	e51b3008 	ldr	r3, [fp, #-8]
 18c:	e2033008 	and	r3, r3, #8
 190:	e3530000 	cmp	r3, #0
 194:	0a000005 	beq	1b0 <main+0x138>
 198:	e59f3030 	ldr	r3, [pc, #48]	; 1d0 <main+0x158>
 19c:	e59f202c 	ldr	r2, [pc, #44]	; 1d0 <main+0x158>
 1a0:	e5922000 	ldr	r2, [r2]
 1a4:	e3822010 	orr	r2, r2, #16
 1a8:	e5832000 	str	r2, [r3]
 1ac:	eaffffd0 	b	f4 <main+0x7c>
 1b0:	e59f3018 	ldr	r3, [pc, #24]	; 1d0 <main+0x158>
 1b4:	e59f2014 	ldr	r2, [pc, #20]	; 1d0 <main+0x158>
 1b8:	e5922000 	ldr	r2, [r2]
 1bc:	e3c22010 	bic	r2, r2, #16
 1c0:	e5832000 	str	r2, [r3]
 1c4:	eaffffca 	b	f4 <main+0x7c>
 1c8:	56000050 	undefined instruction 0x56000050
 1cc:	56000060 	strpl	r0, [r0], -r0, rrx
 1d0:	56000054 	undefined instruction 0x56000054
 1d4:	56000064 	strpl	r0, [r0], -r4, rrx
